target datalayout = "e-m:e-p270:32:32-p271:32:32-p272:64:64-i64:64-i128:128-f80:128-n8:16:32:64-S128"
target triple = "x86_64-unknown-linux-gnu"

@.str = private unnamed_addr constant [28 x i8] c"../qemu/crypto/block-luks.c\00", align 1
@.str.61 = private unnamed_addr constant [56 x i8] c"QEMU_IS_ALIGNED(offset, QCRYPTO_BLOCK_LUKS_SECTOR_SIZE)\00", align 1
@__PRETTY_FUNCTION__.qcrypto_block_luks_encrypt = private unnamed_addr constant [86 x i8] c"int qcrypto_block_luks_encrypt(QCryptoBlock *, uint64_t, uint8_t *, size_t, Error **)\00", align 1
@.str.62 = private unnamed_addr constant [53 x i8] c"QEMU_IS_ALIGNED(len, QCRYPTO_BLOCK_LUKS_SECTOR_SIZE)\00", align 1

; Function Attrs: nounwind sspstrong uwtable
define internal i32 @qcrypto_block_luks_encrypt(ptr noundef %block, i64 noundef %offset, ptr noundef %buf, i64 noundef %len, ptr noundef %errp) #0 {
entry:
  %block.addr = alloca ptr, align 8
  %offset.addr = alloca i64, align 8
  %buf.addr = alloca ptr, align 8
  %len.addr = alloca i64, align 8
  %errp.addr = alloca ptr, align 8
  store ptr %block, ptr %block.addr, align 8
  store i64 %offset, ptr %offset.addr, align 8
  store ptr %buf, ptr %buf.addr, align 8
  store i64 %len, ptr %len.addr, align 8
  store ptr %errp, ptr %errp.addr, align 8
  %0 = load i64, ptr %offset.addr, align 8
  %rem = urem i64 %0, 512
  %cmp = icmp eq i64 %rem, 0
  br i1 %cmp, label %if.then, label %if.else

if.then:                                          ; preds = %entry
  br label %if.end

if.else:                                          ; preds = %entry
  call void @__assert_fail(ptr noundef @.str.61, ptr noundef @.str, i32 noundef 1923, ptr noundef @__PRETTY_FUNCTION__.qcrypto_block_luks_encrypt) #16
  unreachable

if.end:                                           ; preds = %if.then
  %1 = load i64, ptr %len.addr, align 8
  %rem1 = urem i64 %1, 512
  %cmp2 = icmp eq i64 %rem1, 0
  br i1 %cmp2, label %if.then3, label %if.else4

if.then3:                                         ; preds = %if.end
  br label %if.end5

if.else4:                                         ; preds = %if.end
  call void @__assert_fail(ptr noundef @.str.62, ptr noundef @.str, i32 noundef 1924, ptr noundef @__PRETTY_FUNCTION__.qcrypto_block_luks_encrypt) #16
  unreachable

if.end5:                                          ; preds = %if.then3
  %2 = load ptr, ptr %block.addr, align 8
  %3 = load i64, ptr %offset.addr, align 8
  %4 = load ptr, ptr %buf.addr, align 8
  %5 = load i64, ptr %len.addr, align 8
  %6 = load ptr, ptr %errp.addr, align 8
  %call = call i32 @qcrypto_block_encrypt_helper(ptr noundef %2, i32 noundef 512, i64 noundef %3, ptr noundef %4, i64 noundef %5, ptr noundef %6)
  ret i32 %call
}