; Function Attrs: nounwind sspstrong uwtable
define internal i32 @qcrypto_block_luks_encrypt(ptr noundef %block, i64 noundef %offset, ptr noundef %buf, i64 noundef %len, ptr noundef %errp) #1 {
entry:
  %rem = and i64 %offset, 511
  %cmp = icmp eq i64 %rem, 0
  br i1 %cmp, label %if.end, label %if.else

if.else:                                          ; preds = %entry
  tail call void @__assert_fail(ptr noundef nonnull @.str.61, ptr noundef nonnull @.str, i32 noundef 1923, ptr noundef nonnull @__PRETTY_FUNCTION__.qcrypto_block_luks_encrypt) #19
  unreachable

if.end:                                           ; preds = %entry
  %rem1 = and i64 %len, 511
  %cmp2 = icmp eq i64 %rem1, 0
  br i1 %cmp2, label %if.end5, label %if.else4

if.else4:                                         ; preds = %if.end
  tail call void @__assert_fail(ptr noundef nonnull @.str.62, ptr noundef nonnull @.str, i32 noundef 1924, ptr noundef nonnull @__PRETTY_FUNCTION__.qcrypto_block_luks_encrypt) #19
  unreachable

if.end5:                                          ; preds = %if.end
  %call = tail call i32 @qcrypto_block_encrypt_helper(ptr noundef %block, i32 noundef 512, i64 noundef %offset, ptr noundef %buf, i64 noundef %len, ptr noundef %errp) #16
  ret i32 %call
}